; Function Attrs: mustprogress uwtable
define void @_ZN3gmx26MrcDensityMapOfFloatReaderC2EPNS_11ISerializerE(ptr noundef nonnull writeonly align 8 captures(none) dereferenceable(8) %0, ptr noundef %1) unnamed_addr #0 align 2 personality ptr @__gxx_personality_v0 {
  %3 = tail call noalias noundef nonnull dereferenceable(1064) ptr @_Znwm(i64 noundef 1064) #24
  invoke void @_ZN3gmx26MrcDensityMapOfFloatReader4ImplC1EPNS_11ISerializerE(ptr noundef nonnull align 8 dereferenceable(1064) %3, ptr noundef %1)
          to label %4 unwind label %5

4:                                                ; preds = %2
  store ptr %3, ptr %0, align 8, !tbaa !72
  ret void

5:                                                ; preds = %2
  %6 = landingpad { ptr, i32 }
          cleanup
  tail call void @_ZdlPvm(ptr noundef nonnull %3, i64 noundef 1064) #23
  resume { ptr, i32 } %6
}